; Function Attrs: mustprogress nofree norecurse nosync nounwind willreturn memory(argmem: write) uwtable
define range(i64 -1, 1) i64 @ZSTD_CCtxParams_reset(ptr noundef writeonly captures(address_is_null) %0) local_unnamed_addr #6 {
  %.not.i = icmp eq ptr %0, null
  br i1 %.not.i, label %ZSTD_CCtxParams_init.exit, label %2

2:                                                ; preds = %1
  tail call void @llvm.memset.p0.i64(ptr noundef nonnull align 8 dereferenceable(224) %0, i8 0, i64 224, i1 false)
  %3 = getelementptr inbounds nuw i8, ptr %0, i64 44
  store i32 3, ptr %3, align 4, !tbaa !43
  %4 = getelementptr inbounds nuw i8, ptr %0, i64 32
  store i32 1, ptr %4, align 8, !tbaa !44
  br label %ZSTD_CCtxParams_init.exit

ZSTD_CCtxParams_init.exit:                        ; preds = %1, %2
  %.0.i = phi i64 [ 0, %2 ], [ -1, %1 ]
  ret i64 %.0.i
}